; ModuleID = '58/99.c'
source_filename = "58/99.c"
target datalayout = "e-m:e-p270:32:32-p271:32:32-p272:64:64-i64:64-f80:128-n8:16:32:64-S128"
target triple = "x86_64-pc-linux-gnu"

@.str = private unnamed_addr constant [4 x i8] c"%d \00", align 1
@.str.1 = private unnamed_addr constant [3 x i8] c"1\0A\00", align 1
@.str.2 = private unnamed_addr constant [3 x i8] c"0\0A\00", align 1

; Function Attrs: noinline nounwind uwtable
define dso_local void @main() #0 {
  %1 = alloca i32, align 4
  %2 = alloca i32, align 4
  %3 = alloca i32, align 4
  %4 = alloca [100 x [100 x i8]], align 16
  %5 = alloca [100 x i8*], align 16
  %6 = call i32 (i8*, ...) @__isoc99_scanf(i8* getelementptr inbounds ([4 x i8], [4 x i8]* @.str, i64 0, i64 0), i32* %1)
  store i32 0, i32* %2, align 4
  br label %7

7:                                                ; preds = %24, %0
  %8 = load i32, i32* %2, align 4
  %9 = load i32, i32* %1, align 4
  %10 = icmp slt i32 %8, %9
  br i1 %10, label %11, label %27

11:                                               ; preds = %7
  %12 = load i32, i32* %2, align 4
  %13 = sext i32 %12 to i64
  %14 = getelementptr inbounds [100 x [100 x i8]], [100 x [100 x i8]]* %4, i64 0, i64 %13
  %15 = getelementptr inbounds [100 x i8], [100 x i8]* %14, i64 0, i64 0
  %16 = call i32 (i8*, ...) bitcast (i32 (...)* @gets to i32 (i8*, ...)*)(i8* %15)
  %17 = load i32, i32* %2, align 4
  %18 = sext i32 %17 to i64
  %19 = getelementptr inbounds [100 x [100 x i8]], [100 x [100 x i8]]* %4, i64 0, i64 %18
  %20 = getelementptr inbounds [100 x i8], [100 x i8]* %19, i64 0, i64 0
  %21 = load i32, i32* %2, align 4
  %22 = sext i32 %21 to i64
  %23 = getelementptr inbounds [100 x i8*], [100 x i8*]* %5, i64 0, i64 %22
  store i8* %20, i8** %23, align 8
  br label %24

24:                                               ; preds = %11
  %25 = load i32, i32* %2, align 4
  %26 = add nsw i32 %25, 1
  store i32 %26, i32* %2, align 4
  br label %7

27:                                               ; preds = %7
  store i32 0, i32* %2, align 4
  br label %28

28:                                               ; preds = %154, %27
  %29 = load i32, i32* %2, align 4
  %30 = load i32, i32* %1, align 4
  %31 = icmp slt i32 %29, %30
  br i1 %31, label %32, label %157

32:                                               ; preds = %28
  store i32 1, i32* %3, align 4
  %33 = load i32, i32* %2, align 4
  %34 = sext i32 %33 to i64
  %35 = getelementptr inbounds [100 x i8*], [100 x i8*]* %5, i64 0, i64 %34
  %36 = load i8*, i8** %35, align 8
  %37 = load i8, i8* %36, align 1
  %38 = sext i8 %37 to i32
  %39 = icmp slt i32 %38, 97
  br i1 %39, label %48, label %40

40:                                               ; preds = %32
  %41 = load i32, i32* %2, align 4
  %42 = sext i32 %41 to i64
  %43 = getelementptr inbounds [100 x i8*], [100 x i8*]* %5, i64 0, i64 %42
  %44 = load i8*, i8** %43, align 8
  %45 = load i8, i8* %44, align 1
  %46 = sext i8 %45 to i32
  %47 = icmp sgt i32 %46, 122
  br i1 %47, label %48, label %73

48:                                               ; preds = %40, %32
  %49 = load i32, i32* %2, align 4
  %50 = sext i32 %49 to i64
  %51 = getelementptr inbounds [100 x i8*], [100 x i8*]* %5, i64 0, i64 %50
  %52 = load i8*, i8** %51, align 8
  %53 = load i8, i8* %52, align 1
  %54 = sext i8 %53 to i32
  %55 = icmp slt i32 %54, 65
  br i1 %55, label %64, label %56

56:                                               ; preds = %48
  %57 = load i32, i32* %2, align 4
  %58 = sext i32 %57 to i64
  %59 = getelementptr inbounds [100 x i8*], [100 x i8*]* %5, i64 0, i64 %58
  %60 = load i8*, i8** %59, align 8
  %61 = load i8, i8* %60, align 1
  %62 = sext i8 %61 to i32
  %63 = icmp sgt i32 %62, 90
  br i1 %63, label %64, label %73

64:                                               ; preds = %56, %48
  %65 = load i32, i32* %2, align 4
  %66 = sext i32 %65 to i64
  %67 = getelementptr inbounds [100 x i8*], [100 x i8*]* %5, i64 0, i64 %66
  %68 = load i8*, i8** %67, align 8
  %69 = load i8, i8* %68, align 1
  %70 = sext i8 %69 to i32
  %71 = icmp ne i32 %70, 95
  br i1 %71, label %72, label %73

72:                                               ; preds = %64
  store i32 0, i32* %3, align 4
  br label %73

73:                                               ; preds = %72, %64, %56, %40
  br label %74

74:                                               ; preds = %140, %73
  %75 = load i32, i32* %2, align 4
  %76 = sext i32 %75 to i64
  %77 = getelementptr inbounds [100 x i8*], [100 x i8*]* %5, i64 0, i64 %76
  %78 = load i8*, i8** %77, align 8
  %79 = load i8, i8* %78, align 1
  %80 = sext i8 %79 to i32
  %81 = icmp ne i32 %80, 0
  br i1 %81, label %82, label %146

82:                                               ; preds = %74
  %83 = load i32, i32* %2, align 4
  %84 = sext i32 %83 to i64
  %85 = getelementptr inbounds [100 x i8*], [100 x i8*]* %5, i64 0, i64 %84
  %86 = load i8*, i8** %85, align 8
  %87 = load i8, i8* %86, align 1
  %88 = sext i8 %87 to i32
  %89 = icmp slt i32 %88, 48
  br i1 %89, label %98, label %90

90:                                               ; preds = %82
  %91 = load i32, i32* %2, align 4
  %92 = sext i32 %91 to i64
  %93 = getelementptr inbounds [100 x i8*], [100 x i8*]* %5, i64 0, i64 %92
  %94 = load i8*, i8** %93, align 8
  %95 = load i8, i8* %94, align 1
  %96 = sext i8 %95 to i32
  %97 = icmp sgt i32 %96, 57
  br i1 %97, label %98, label %139

98:                                               ; preds = %90, %82
  %99 = load i32, i32* %2, align 4
  %100 = sext i32 %99 to i64
  %101 = getelementptr inbounds [100 x i8*], [100 x i8*]* %5, i64 0, i64 %100
  %102 = load i8*, i8** %101, align 8
  %103 = load i8, i8* %102, align 1
  %104 = sext i8 %103 to i32
  %105 = icmp slt i32 %104, 97
  br i1 %105, label %114, label %106

106:                                              ; preds = %98
  %107 = load i32, i32* %2, align 4
  %108 = sext i32 %107 to i64
  %109 = getelementptr inbounds [100 x i8*], [100 x i8*]* %5, i64 0, i64 %108
  %110 = load i8*, i8** %109, align 8
  %111 = load i8, i8* %110, align 1
  %112 = sext i8 %111 to i32
  %113 = icmp sgt i32 %112, 122
  br i1 %113, label %114, label %139

114:                                              ; preds = %106, %98
  %115 = load i32, i32* %2, align 4
  %116 = sext i32 %115 to i64
  %117 = getelementptr inbounds [100 x i8*], [100 x i8*]* %5, i64 0, i64 %116
  %118 = load i8*, i8** %117, align 8
  %119 = load i8, i8* %118, align 1
  %120 = sext i8 %119 to i32
  %121 = icmp slt i32 %120, 65
  br i1 %121, label %130, label %122

122:                                              ; preds = %114
  %123 = load i32, i32* %2, align 4
  %124 = sext i32 %123 to i64
  %125 = getelementptr inbounds [100 x i8*], [100 x i8*]* %5, i64 0, i64 %124
  %126 = load i8*, i8** %125, align 8
  %127 = load i8, i8* %126, align 1
  %128 = sext i8 %127 to i32
  %129 = icmp sgt i32 %128, 90
  br i1 %129, label %130, label %139

130:                                              ; preds = %122, %114
  %131 = load i32, i32* %2, align 4
  %132 = sext i32 %131 to i64
  %133 = getelementptr inbounds [100 x i8*], [100 x i8*]* %5, i64 0, i64 %132
  %134 = load i8*, i8** %133, align 8
  %135 = load i8, i8* %134, align 1
  %136 = sext i8 %135 to i32
  %137 = icmp ne i32 %136, 95
  br i1 %137, label %138, label %139

138:                                              ; preds = %130
  store i32 0, i32* %3, align 4
  br label %139

139:                                              ; preds = %138, %130, %122, %106, %90
  br label %140

140:                                              ; preds = %139
  %141 = load i32, i32* %2, align 4
  %142 = sext i32 %141 to i64
  %143 = getelementptr inbounds [100 x i8*], [100 x i8*]* %5, i64 0, i64 %142
  %144 = load i8*, i8** %143, align 8
  %145 = getelementptr inbounds i8, i8* %144, i32 1
  store i8* %145, i8** %143, align 8
  br label %74

146:                                              ; preds = %74
  %147 = load i32, i32* %3, align 4
  %148 = icmp eq i32 %147, 1
  br i1 %148, label %149, label %151

149:                                              ; preds = %146
  %150 = call i32 (i8*, ...) @printf(i8* getelementptr inbounds ([3 x i8], [3 x i8]* @.str.1, i64 0, i64 0))
  br label %153

151:                                              ; preds = %146
  %152 = call i32 (i8*, ...) @printf(i8* getelementptr inbounds ([3 x i8], [3 x i8]* @.str.2, i64 0, i64 0))
  br label %153

153:                                              ; preds = %151, %149
  br label %154

154:                                              ; preds = %153
  %155 = load i32, i32* %2, align 4
  %156 = add nsw i32 %155, 1
  store i32 %156, i32* %2, align 4
  br label %28

157:                                              ; preds = %28
  ret void
}

declare dso_local i32 @__isoc99_scanf(i8*, ...) #1

declare dso_local i32 @gets(...) #1

declare dso_local i32 @printf(i8*, ...) #1


!llvm.module.flags = !{!0}
!llvm.ident = !{!1}

!0 = !{i32 1, !"wchar_size", i32 4}
!1 = !{!"clang version 10.0.0-4ubuntu1 "}
