; ModuleID = 'source-C-CXX/57/99.c'
source_filename = "source-C-CXX/57/99.c"
target datalayout = "e-m:e-p270:32:32-p271:32:32-p272:64:64-i64:64-f80:128-n8:16:32:64-S128"
target triple = "x86_64-pc-linux-gnu"

@.str = private unnamed_addr constant [4 x i8] c"%d \00", align 1
@str = private unnamed_addr constant [2 x i8] c"0\00", align 1
@str.3 = private unnamed_addr constant [2 x i8] c"1\00", align 1

; Function Attrs: nounwind sspstrong uwtable
define dso_local void @main() local_unnamed_addr #0 {
  %1 = alloca i32, align 4
  %2 = alloca [100 x [100 x i8]], align 16
  %3 = alloca [100 x i8*], align 16
  %4 = bitcast i32* %1 to i8*
  call void @llvm.lifetime.start.p0i8(i64 4, i8* nonnull %4) #5
  %5 = getelementptr inbounds [100 x [100 x i8]], [100 x [100 x i8]]* %2, i64 0, i64 0, i64 0
  call void @llvm.lifetime.start.p0i8(i64 10000, i8* nonnull %5) #5
  %6 = bitcast [100 x i8*]* %3 to i8*
  call void @llvm.lifetime.start.p0i8(i64 800, i8* nonnull %6) #5
  %7 = call i32 (i8*, ...) @__isoc99_scanf(i8* getelementptr inbounds ([4 x i8], [4 x i8]* @.str, i64 0, i64 0), i32* nonnull %1)
  %8 = load i32, i32* %1, align 4, !tbaa !5
  %9 = icmp sgt i32 %8, 0
  br i1 %9, label %12, label %61

10:                                               ; preds = %12
  %11 = icmp sgt i32 %18, 0
  br i1 %11, label %21, label %61

12:                                               ; preds = %0, %12
  %13 = phi i64 [ %17, %12 ], [ 0, %0 ]
  %14 = getelementptr inbounds [100 x [100 x i8]], [100 x [100 x i8]]* %2, i64 0, i64 %13, i64 0
  %15 = call i32 (i8*, ...) bitcast (i32 (...)* @gets to i32 (i8*, ...)*)(i8* nonnull %14) #5
  %16 = getelementptr inbounds [100 x i8*], [100 x i8*]* %3, i64 0, i64 %13
  store i8* %14, i8** %16, align 8, !tbaa !9
  %17 = add nuw nsw i64 %13, 1
  %18 = load i32, i32* %1, align 4, !tbaa !5
  %19 = sext i32 %18 to i64
  %20 = icmp slt i64 %17, %19
  br i1 %20, label %12, label %10, !llvm.loop !11

21:                                               ; preds = %10, %51
  %22 = phi i64 [ %57, %51 ], [ 0, %10 ]
  %23 = getelementptr inbounds [100 x i8*], [100 x i8*]* %3, i64 0, i64 %22
  %24 = load i8*, i8** %23, align 8, !tbaa !9
  %25 = load i8, i8* %24, align 1, !tbaa !13
  %26 = icmp eq i8 %25, 95
  %27 = and i8 %25, -33
  %28 = add i8 %27, -65
  %29 = icmp ult i8 %28, 26
  %30 = select i1 %29, i1 true, i1 %26
  %31 = zext i1 %30 to i32
  %32 = icmp eq i8 %25, 0
  br i1 %32, label %51, label %33

33:                                               ; preds = %21, %33
  %34 = phi i8 [ %49, %33 ], [ %25, %21 ]
  %35 = phi i32 [ %47, %33 ], [ %31, %21 ]
  %36 = phi i8* [ %48, %33 ], [ %24, %21 ]
  %37 = add i8 %34, -48
  %38 = icmp ugt i8 %37, 9
  %39 = add i8 %34, -97
  %40 = icmp ugt i8 %39, 25
  %41 = and i1 %38, %40
  %42 = add i8 %34, -65
  %43 = icmp ugt i8 %42, 25
  %44 = select i1 %41, i1 %43, i1 false
  %45 = icmp eq i8 %34, 95
  %46 = select i1 %45, i32 %35, i32 0
  %47 = select i1 %44, i32 %46, i32 %35
  %48 = getelementptr inbounds i8, i8* %36, i64 1
  %49 = load i8, i8* %48, align 1, !tbaa !13
  %50 = icmp eq i8 %49, 0
  br i1 %50, label %51, label %33, !llvm.loop !14

51:                                               ; preds = %33, %21
  %52 = phi i8* [ %24, %21 ], [ %48, %33 ]
  %53 = phi i32 [ %31, %21 ], [ %47, %33 ]
  store i8* %52, i8** %23, align 8, !tbaa !9
  %54 = icmp eq i32 %53, 1
  %55 = select i1 %54, i8* getelementptr inbounds ([2 x i8], [2 x i8]* @str.3, i64 0, i64 0), i8* getelementptr inbounds ([2 x i8], [2 x i8]* @str, i64 0, i64 0)
  %56 = call i32 @puts(i8* nonnull dereferenceable(1) %55)
  %57 = add nuw nsw i64 %22, 1
  %58 = load i32, i32* %1, align 4, !tbaa !5
  %59 = sext i32 %58 to i64
  %60 = icmp slt i64 %57, %59
  br i1 %60, label %21, label %61, !llvm.loop !15

61:                                               ; preds = %51, %0, %10
  call void @llvm.lifetime.end.p0i8(i64 800, i8* nonnull %6) #5
  call void @llvm.lifetime.end.p0i8(i64 10000, i8* nonnull %5) #5
  call void @llvm.lifetime.end.p0i8(i64 4, i8* nonnull %4) #5
  ret void
}

; Function Attrs: argmemonly mustprogress nofree nosync nounwind willreturn
declare void @llvm.lifetime.start.p0i8(i64 immarg, i8* nocapture) #1

; Function Attrs: nofree nounwind
declare noundef i32 @__isoc99_scanf(i8* nocapture noundef readonly, ...) local_unnamed_addr #2

declare i32 @gets(...) local_unnamed_addr #3

; Function Attrs: argmemonly mustprogress nofree nosync nounwind willreturn
declare void @llvm.lifetime.end.p0i8(i64 immarg, i8* nocapture) #1

; Function Attrs: nofree nounwind
declare noundef i32 @puts(i8* nocapture noundef readonly) local_unnamed_addr #4


!llvm.module.flags = !{!0, !1, !2, !3}
!llvm.ident = !{!4}

!0 = !{i32 1, !"wchar_size", i32 4}
!1 = !{i32 7, !"PIC Level", i32 2}
!2 = !{i32 7, !"PIE Level", i32 2}
!3 = !{i32 7, !"uwtable", i32 1}
!4 = !{!"clang version 13.0.0"}
!5 = !{!6, !6, i64 0}
!6 = !{!"int", !7, i64 0}
!7 = !{!"omnipotent char", !8, i64 0}
!8 = !{!"Simple C/C++ TBAA"}
!9 = !{!10, !10, i64 0}
!10 = !{!"any pointer", !7, i64 0}
!11 = distinct !{!11, !12}
!12 = !{!"llvm.loop.mustprogress"}
!13 = !{!7, !7, i64 0}
!14 = distinct !{!14, !12}
!15 = distinct !{!15, !12}
